(dp0
Vtotal_max_upload_rate
p1
I0
sVdownload_dir
p2
V/root/.ACEStream/.acestream_cache
p3
sVtotal_max_download_rate
p4
I0
sVmax_download_rate
p5
F1678.053632020428
sVdisk_cache_limit
p6
I10737418240
sVad_storage_limit
p7
I1073741824
sVmax_connects
p8
I150
sVmax_peers
p9
I100
sVallow_remote_access
p10
I01
sVlive_buffer_time
p11
I30
s.