(dp0
S'total_max_upload_rate'
p1
I0
sS'download_dir'
p2
V/root/.ACEStream/.acestream_cache
p3
sS'total_max_download_rate'
p4
I0
sS'max_download_rate'
p5
F1678.053632020428
sS'disk_cache_limit'
p6
L10737418240L
sS'ad_storage_limit'
p7
L1073741824L
sS'max_connects'
p8
I150
sS'max_peers'
p9
I100
sS'allow_remote_access'
p10
I01
sS'live_buffer_time'
p11
I30
s.